target datalayout = "e-m:e-p270:32:32-p271:32:32-p272:64:64-i64:64-i128:128-f80:128-n8:16:32:64-S128"
target triple = "x86_64-pc-linux-gnu"

%"class.std::basic_istream" = type { ptr, i64, %"class.std::basic_ios" }
%"class.std::basic_ios" = type { %"class.std::ios_base", ptr, i8, i8, ptr, ptr, ptr, ptr }
%"class.std::ios_base" = type { ptr, i64, i64, i32, i32, i32, ptr, %"struct.std::ios_base::_Words", [8 x %"struct.std::ios_base::_Words"], i32, ptr, %"class.std::locale" }
%"struct.std::ios_base::_Words" = type { ptr, i64 }
%"class.std::locale" = type { ptr }
%"class.std::basic_ostream" = type { ptr, %"class.std::basic_ios" }
%class.V3LexerBase = type <{ %class.FlexLexer.base, i32, i32, [4 x i8], ptr, %"class.std::basic_istream", %"class.std::basic_ostream", i8, [3 x i8], i32, ptr, i32, i32, i32, [4 x i8], i64, i64, ptr, i32, [4 x i8], ptr, ptr, ptr, ptr, ptr, i32, i32, i32, i32, i32, i32, i32, [4 x i8] }>
%class.FlexLexer.base = type <{ ptr, ptr, i32, i32, i32 }>
%class.FlexLexer = type <{ ptr, ptr, i32, i32, i32, [4 x i8] }>

; Function Attrs: mustprogress nounwind uwtable
define linkonce_odr dso_local void @_ZN9FlexLexerD2Ev(ptr noundef nonnull align 8 dereferenceable(28) %0) unnamed_addr #4 comdat align 2 {
  %2 = alloca ptr, align 8
  store ptr %0, ptr %2, align 8
  ret void
}

; Function Attrs: mustprogress nounwind uwtable
define dso_local void @_ZN11V3LexerBase11ctor_commonEv(ptr noundef nonnull align 8 dereferenceable(732) %0) #4 align 2 {
  %2 = alloca ptr, align 8
  store ptr %0, ptr %2, align 8
  %3 = load ptr, ptr %2, align 8
  %4 = getelementptr inbounds %class.V3LexerBase, ptr %3, i32 0, i32 10
  store ptr null, ptr %4, align 8
  %5 = getelementptr inbounds %class.V3LexerBase, ptr %3, i32 0, i32 11
  store i32 0, ptr %5, align 8
  %6 = getelementptr inbounds %class.V3LexerBase, ptr %3, i32 0, i32 12
  store i32 0, ptr %6, align 4
  %7 = getelementptr inbounds %class.FlexLexer, ptr %3, i32 0, i32 4
  store i32 0, ptr %7, align 8
  %8 = getelementptr inbounds %class.FlexLexer, ptr %3, i32 0, i32 3
  store i32 1, ptr %8, align 4
  %9 = getelementptr inbounds %class.V3LexerBase, ptr %3, i32 0, i32 13
  store i32 0, ptr %9, align 8
  %10 = getelementptr inbounds %class.V3LexerBase, ptr %3, i32 0, i32 27
  store i32 0, ptr %10, align 8
  %11 = getelementptr inbounds %class.V3LexerBase, ptr %3, i32 0, i32 28
  store i32 0, ptr %11, align 4
  %12 = getelementptr inbounds %class.V3LexerBase, ptr %3, i32 0, i32 29
  store i32 0, ptr %12, align 8
  %13 = getelementptr inbounds %class.V3LexerBase, ptr %3, i32 0, i32 31
  store i32 0, ptr %13, align 8
  %14 = getelementptr inbounds %class.V3LexerBase, ptr %3, i32 0, i32 30
  store i32 0, ptr %14, align 4
  %15 = getelementptr inbounds %class.V3LexerBase, ptr %3, i32 0, i32 2
  store i32 0, ptr %15, align 8
  %16 = getelementptr inbounds %class.V3LexerBase, ptr %3, i32 0, i32 1
  store i32 0, ptr %16, align 4
  %17 = getelementptr inbounds %class.V3LexerBase, ptr %3, i32 0, i32 4
  store ptr null, ptr %17, align 8
  %18 = getelementptr inbounds %class.V3LexerBase, ptr %3, i32 0, i32 17
  store ptr null, ptr %18, align 8
  %19 = getelementptr inbounds %class.V3LexerBase, ptr %3, i32 0, i32 15
  store i64 0, ptr %19, align 8
  %20 = getelementptr inbounds %class.V3LexerBase, ptr %3, i32 0, i32 16
  store i64 0, ptr %20, align 8
  %21 = getelementptr inbounds %class.V3LexerBase, ptr %3, i32 0, i32 21
  store ptr null, ptr %21, align 8
  ret void
}

; Function Attrs: mustprogress nounwind uwtable
define linkonce_odr dso_local void @_ZN9FlexLexerC2Ev(ptr noundef nonnull align 8 dereferenceable(28) %0) unnamed_addr #4 comdat align 2 {
  %2 = alloca ptr, align 8
  store ptr %0, ptr %2, align 8
  %3 = load ptr, ptr %2, align 8
  store ptr getelementptr inbounds inrange(-16, 88) ({ [13 x ptr] }, ptr @_ZTV9FlexLexer, i32 0, i32 0, i32 2), ptr %3, align 8
  ret void
}

; Function Attrs: mustprogress uwtable
define dso_local void @_ZN11V3LexerBaseC2ERSiRSo(ptr noundef nonnull align 8 dereferenceable(732) %0, ptr noundef nonnull align 8 dereferenceable(16) %1, ptr noundef nonnull align 8 dereferenceable(8) %2) unnamed_addr #5 align 2 personality ptr @__gxx_personality_v0 {
  %4 = alloca ptr, align 8
  %5 = alloca ptr, align 8
  %6 = alloca ptr, align 8
  %7 = alloca ptr, align 8
  %8 = alloca i32, align 4
  store ptr %0, ptr %4, align 8
  store ptr %1, ptr %5, align 8
  store ptr %2, ptr %6, align 8
  %9 = load ptr, ptr %4, align 8
  call void @_ZN9FlexLexerC2Ev(ptr noundef nonnull align 8 dereferenceable(28) %9) #3
  store ptr getelementptr inbounds inrange(-16, 120) ({ [17 x ptr] }, ptr @_ZTV11V3LexerBase, i32 0, i32 0, i32 2), ptr %9, align 8
  %10 = getelementptr inbounds %class.V3LexerBase, ptr %9, i32 0, i32 5
  %11 = load ptr, ptr %5, align 8
  %12 = load ptr, ptr %11, align 8
  %13 = getelementptr i8, ptr %12, i64 -24
  %14 = load i64, ptr %13, align 8
  %15 = getelementptr inbounds i8, ptr %11, i64 %14
  %16 = invoke noundef ptr @_ZNKSt9basic_iosIcSt11char_traitsIcEE5rdbufEv(ptr noundef nonnull align 8 dereferenceable(264) %15)
          to label %17 unwind label %29

17:                                               ; preds = %3
  invoke void @_ZNSiC1EPSt15basic_streambufIcSt11char_traitsIcEE(ptr noundef nonnull align 8 dereferenceable(16) %10, ptr noundef %16)
          to label %18 unwind label %29

18:                                               ; preds = %17
  %19 = getelementptr inbounds %class.V3LexerBase, ptr %9, i32 0, i32 6
  %20 = load ptr, ptr %6, align 8
  %21 = load ptr, ptr %20, align 8
  %22 = getelementptr i8, ptr %21, i64 -24
  %23 = load i64, ptr %22, align 8
  %24 = getelementptr inbounds i8, ptr %20, i64 %23
  %25 = invoke noundef ptr @_ZNKSt9basic_iosIcSt11char_traitsIcEE5rdbufEv(ptr noundef nonnull align 8 dereferenceable(264) %24)
          to label %26 unwind label %33

26:                                               ; preds = %18
  invoke void @_ZNSoC1EPSt15basic_streambufIcSt11char_traitsIcEE(ptr noundef nonnull align 8 dereferenceable(8) %19, ptr noundef %25)
          to label %27 unwind label %33

27:                                               ; preds = %26
  invoke void @_ZN11V3LexerBase11ctor_commonEv(ptr noundef nonnull align 8 dereferenceable(732) %9)
          to label %28 unwind label %37

28:                                               ; preds = %27
  ret void

29:                                               ; preds = %17, %3
  %30 = landingpad { ptr, i32 }
          cleanup
  %31 = extractvalue { ptr, i32 } %30, 0
  store ptr %31, ptr %7, align 8
  %32 = extractvalue { ptr, i32 } %30, 1
  store i32 %32, ptr %8, align 4
  br label %42

33:                                               ; preds = %26, %18
  %34 = landingpad { ptr, i32 }
          cleanup
  %35 = extractvalue { ptr, i32 } %34, 0
  store ptr %35, ptr %7, align 8
  %36 = extractvalue { ptr, i32 } %34, 1
  store i32 %36, ptr %8, align 4
  br label %41

37:                                               ; preds = %27
  %38 = landingpad { ptr, i32 }
          cleanup
  %39 = extractvalue { ptr, i32 } %38, 0
  store ptr %39, ptr %7, align 8
  %40 = extractvalue { ptr, i32 } %38, 1
  store i32 %40, ptr %8, align 4
  call void @_ZNSoD1Ev(ptr noundef nonnull align 8 dereferenceable(8) %19) #3
  br label %41

41:                                               ; preds = %37, %33
  call void @_ZNSiD1Ev(ptr noundef nonnull align 8 dereferenceable(16) %10) #3
  br label %42

42:                                               ; preds = %41, %29
  call void @_ZN9FlexLexerD2Ev(ptr noundef nonnull align 8 dereferenceable(28) %9) #3
  br label %43

43:                                               ; preds = %42
  %44 = load ptr, ptr %7, align 8
  %45 = load i32, ptr %8, align 4
  %46 = insertvalue { ptr, i32 } poison, ptr %44, 0
  %47 = insertvalue { ptr, i32 } %46, i32 %45, 1
  resume { ptr, i32 } %47
}