; Function Attrs: mustprogress uwtable
define dso_local void @_ZN11V3LexerBaseC2ERSiRSo(ptr noundef nonnull align 8 dereferenceable(732) %0, ptr noundef nonnull align 8 dereferenceable(16) %1, ptr noundef nonnull align 8 dereferenceable(8) %2) unnamed_addr #4 align 2 personality ptr @__gxx_personality_v0 {
  store ptr getelementptr inbounds inrange(-16, 120) ({ [17 x ptr] }, ptr @_ZTV11V3LexerBase, i64 0, i32 0, i64 2), ptr %0, align 8
  %4 = getelementptr inbounds i8, ptr %0, i64 48
  %5 = load ptr, ptr %1, align 8
  %6 = getelementptr i8, ptr %5, i64 -24
  %7 = load i64, ptr %6, align 8
  %8 = getelementptr inbounds i8, ptr %1, i64 %7
  %9 = tail call noundef ptr @_ZNKSt9basic_iosIcSt11char_traitsIcEE5rdbufEv(ptr noundef nonnull align 8 dereferenceable(264) %8)
  tail call void @_ZNSiC1EPSt15basic_streambufIcSt11char_traitsIcEE(ptr noundef nonnull align 8 dereferenceable(16) %4, ptr noundef %9)
  %10 = load ptr, ptr %2, align 8
  %11 = getelementptr i8, ptr %10, i64 -24
  %12 = load i64, ptr %11, align 8
  %13 = getelementptr inbounds i8, ptr %2, i64 %12
  %14 = invoke noundef ptr @_ZNKSt9basic_iosIcSt11char_traitsIcEE5rdbufEv(ptr noundef nonnull align 8 dereferenceable(264) %13)
          to label %15 unwind label %25

15:                                               ; preds = %3
  %16 = getelementptr inbounds i8, ptr %0, i64 328
  invoke void @_ZNSoC1EPSt15basic_streambufIcSt11char_traitsIcEE(ptr noundef nonnull align 8 dereferenceable(8) %16, ptr noundef %14)
          to label %17 unwind label %25

17:                                               ; preds = %15
  %18 = getelementptr inbounds i8, ptr %0, i64 608
  %19 = getelementptr inbounds i8, ptr %0, i64 20
  tail call void @llvm.memset.p0.i64(ptr noundef nonnull align 8 dereferenceable(16) %18, i8 0, i64 16, i1 false)
  %20 = getelementptr inbounds i8, ptr %0, i64 624
  store i32 0, ptr %20, align 8
  %21 = getelementptr inbounds i8, ptr %0, i64 712
  store <4 x i32> <i32 1, i32 0, i32 0, i32 0>, ptr %19, align 4
  %22 = getelementptr inbounds i8, ptr %0, i64 40
  store ptr null, ptr %22, align 8
  %23 = getelementptr inbounds i8, ptr %0, i64 632
  %24 = getelementptr inbounds i8, ptr %0, i64 672
  store ptr null, ptr %24, align 8
  tail call void @llvm.memset.p0.i64(ptr noundef nonnull align 8 dereferenceable(24) %23, i8 0, i64 24, i1 false)
  tail call void @llvm.memset.p0.i64(ptr noundef nonnull align 8 dereferenceable(20) %21, i8 0, i64 20, i1 false)
  ret void

25:                                               ; preds = %15, %3
  %26 = landingpad { ptr, i32 }
          cleanup
  tail call void @_ZNSiD1Ev(ptr noundef nonnull align 8 dereferenceable(16) %4) #33
  resume { ptr, i32 } %26
}